target datalayout = "e-m:e-p270:32:32-p271:32:32-p272:64:64-i64:64-i128:128-f80:128-n8:16:32:64-S128"
target triple = "x86_64-pc-linux-gnu"

%struct.ACCESS_DESCRIPTION_st = type { ptr, ptr }
%struct.CONF_VALUE = type { ptr, ptr, ptr }

@ACCESS_DESCRIPTION_it.local_it = internal constant { i8, [7 x i8], i64, ptr, i64, ptr, i64, ptr } { i8 1, [7 x i8] zeroinitializer, i64 16, ptr @ACCESS_DESCRIPTION_seq_tt, i64 2, ptr null, i64 16, ptr @.str }, align 8
@.str.5 = private unnamed_addr constant [33 x i8] c"../openssl/crypto/x509/v3_info.c\00", align 1
@__func__.v2i_AUTHORITY_INFO_ACCESS = private unnamed_addr constant [26 x i8] c"v2i_AUTHORITY_INFO_ACCESS\00", align 1
@.str.7 = private unnamed_addr constant [9 x i8] c"value=%s\00", align 1

; Function Attrs: nounwind uwtable
define ptr @ACCESS_DESCRIPTION_it() #0 {
  ret ptr @ACCESS_DESCRIPTION_it.local_it
}

; Function Attrs: inlinehint nounwind uwtable
define internal ptr @ossl_check_ACCESS_DESCRIPTION_freefunc_type(ptr noundef %0) #3 {
  %2 = alloca ptr, align 8
  store ptr %0, ptr %2, align 8, !tbaa !20
  %3 = load ptr, ptr %2, align 8, !tbaa !20
  ret ptr %3
}

; Function Attrs: inlinehint nounwind uwtable
define internal ptr @ossl_check_ACCESS_DESCRIPTION_type(ptr noundef %0) #3 {
  %2 = alloca ptr, align 8
  store ptr %0, ptr %2, align 8, !tbaa !14
  %3 = load ptr, ptr %2, align 8, !tbaa !14
  ret ptr %3
}

; Function Attrs: inlinehint nounwind uwtable
define internal ptr @ossl_check_ACCESS_DESCRIPTION_sk_type(ptr noundef %0) #3 {
  %2 = alloca ptr, align 8
  store ptr %0, ptr %2, align 8, !tbaa !8
  %3 = load ptr, ptr %2, align 8, !tbaa !8
  ret ptr %3
}

; Function Attrs: nounwind uwtable
define ptr @ACCESS_DESCRIPTION_new() #0 {
  %1 = call ptr @ACCESS_DESCRIPTION_it()
  %2 = call ptr @ASN1_item_new(ptr noundef %1)
  ret ptr %2
}

; Function Attrs: inlinehint nounwind uwtable
define internal ptr @ossl_check_ACCESS_DESCRIPTION_compfunc_type(ptr noundef %0) #3 {
  %2 = alloca ptr, align 8
  store ptr %0, ptr %2, align 8, !tbaa !20
  %3 = load ptr, ptr %2, align 8, !tbaa !20
  ret ptr %3
}

; Function Attrs: inlinehint nounwind uwtable
define internal ptr @ossl_check_const_CONF_VALUE_sk_type(ptr noundef %0) #3 {
  %2 = alloca ptr, align 8
  store ptr %0, ptr %2, align 8, !tbaa !10
  %3 = load ptr, ptr %2, align 8, !tbaa !10
  ret ptr %3
}

; Function Attrs: nounwind uwtable
define internal ptr @v2i_AUTHORITY_INFO_ACCESS(ptr noundef %0, ptr noundef %1, ptr noundef %2) #0 {
  %4 = alloca ptr, align 8
  %5 = alloca ptr, align 8
  %6 = alloca ptr, align 8
  %7 = alloca ptr, align 8
  %8 = alloca ptr, align 8
  %9 = alloca ptr, align 8
  %10 = alloca %struct.CONF_VALUE, align 8
  %11 = alloca ptr, align 8
  %12 = alloca i32, align 4
  %13 = alloca i32, align 4
  %14 = alloca ptr, align 8
  %15 = alloca ptr, align 8
  %16 = alloca i32, align 4
  store ptr %0, ptr %5, align 8, !tbaa !3
  store ptr %1, ptr %6, align 8, !tbaa !28
  store ptr %2, ptr %7, align 8, !tbaa !10
  call void @llvm.lifetime.start.p0(i64 8, ptr %8) #5
  store ptr null, ptr %8, align 8, !tbaa !8
  call void @llvm.lifetime.start.p0(i64 8, ptr %9) #5
  call void @llvm.lifetime.start.p0(i64 24, ptr %10) #5
  call void @llvm.lifetime.start.p0(i64 8, ptr %11) #5
  call void @llvm.lifetime.start.p0(i64 4, ptr %12) #5
  call void @llvm.lifetime.start.p0(i64 4, ptr %13) #5
  %17 = load ptr, ptr %7, align 8, !tbaa !10
  %18 = call ptr @ossl_check_const_CONF_VALUE_sk_type(ptr noundef %17)
  %19 = call i32 @OPENSSL_sk_num(ptr noundef %18)
  store i32 %19, ptr %13, align 4, !tbaa !12
  call void @llvm.lifetime.start.p0(i64 8, ptr %14) #5
  call void @llvm.lifetime.start.p0(i64 8, ptr %15) #5
  %20 = call ptr @ossl_check_ACCESS_DESCRIPTION_compfunc_type(ptr noundef null)
  %21 = load i32, ptr %13, align 4, !tbaa !12
  %22 = call ptr @OPENSSL_sk_new_reserve(ptr noundef %20, i32 noundef %21)
  store ptr %22, ptr %8, align 8, !tbaa !8
  %23 = icmp eq ptr %22, null
  br i1 %23, label %24, label %25

24:                                               ; preds = %3
  call void @ERR_new()
  call void @ERR_set_debug(ptr noundef @.str.5, i32 noundef 115, ptr noundef @__func__.v2i_AUTHORITY_INFO_ACCESS)
  call void (i32, i32, ptr, ...) @ERR_set_error(i32 noundef 34, i32 noundef 524303, ptr noundef null)
  store ptr null, ptr %4, align 8
  store i32 1, ptr %16, align 4
  br label %104

25:                                               ; preds = %3
  store i32 0, ptr %12, align 4, !tbaa !12
  br label %26

26:                                               ; preds = %95, %25
  %27 = load i32, ptr %12, align 4, !tbaa !12
  %28 = load i32, ptr %13, align 4, !tbaa !12
  %29 = icmp slt i32 %27, %28
  br i1 %29, label %30, label %98

30:                                               ; preds = %26
  %31 = load ptr, ptr %7, align 8, !tbaa !10
  %32 = call ptr @ossl_check_const_CONF_VALUE_sk_type(ptr noundef %31)
  %33 = load i32, ptr %12, align 4, !tbaa !12
  %34 = call ptr @OPENSSL_sk_value(ptr noundef %32, i32 noundef %33)
  store ptr %34, ptr %9, align 8, !tbaa !20
  %35 = call ptr @ACCESS_DESCRIPTION_new()
  store ptr %35, ptr %11, align 8, !tbaa !14
  %36 = icmp eq ptr %35, null
  br i1 %36, label %37, label %38

37:                                               ; preds = %30
  call void @ERR_new()
  call void @ERR_set_debug(ptr noundef @.str.5, i32 noundef 121, ptr noundef @__func__.v2i_AUTHORITY_INFO_ACCESS)
  call void (i32, i32, ptr, ...) @ERR_set_error(i32 noundef 34, i32 noundef 524301, ptr noundef null)
  br label %100

38:                                               ; preds = %30
  %39 = load ptr, ptr %8, align 8, !tbaa !8
  %40 = call ptr @ossl_check_ACCESS_DESCRIPTION_sk_type(ptr noundef %39)
  %41 = load ptr, ptr %11, align 8, !tbaa !14
  %42 = call ptr @ossl_check_ACCESS_DESCRIPTION_type(ptr noundef %41)
  %43 = call i32 @OPENSSL_sk_push(ptr noundef %40, ptr noundef %42)
  %44 = load ptr, ptr %9, align 8, !tbaa !20
  %45 = getelementptr inbounds nuw %struct.CONF_VALUE, ptr %44, i32 0, i32 1
  %46 = load ptr, ptr %45, align 8, !tbaa !22
  %47 = call ptr @strchr(ptr noundef %46, i32 noundef 59) #6
  store ptr %47, ptr %15, align 8, !tbaa !25
  %48 = load ptr, ptr %15, align 8, !tbaa !25
  %49 = icmp eq ptr %48, null
  br i1 %49, label %50, label %51

50:                                               ; preds = %38
  call void @ERR_new()
  call void @ERR_set_debug(ptr noundef @.str.5, i32 noundef 127, ptr noundef @__func__.v2i_AUTHORITY_INFO_ACCESS)
  call void (i32, i32, ptr, ...) @ERR_set_error(i32 noundef 34, i32 noundef 143, ptr noundef null)
  br label %100

51:                                               ; preds = %38
  %52 = load ptr, ptr %15, align 8, !tbaa !25
  %53 = getelementptr inbounds i8, ptr %52, i64 1
  %54 = getelementptr inbounds nuw %struct.CONF_VALUE, ptr %10, i32 0, i32 1
  store ptr %53, ptr %54, align 8, !tbaa !22
  %55 = load ptr, ptr %9, align 8, !tbaa !20
  %56 = getelementptr inbounds nuw %struct.CONF_VALUE, ptr %55, i32 0, i32 2
  %57 = load ptr, ptr %56, align 8, !tbaa !30
  %58 = getelementptr inbounds nuw %struct.CONF_VALUE, ptr %10, i32 0, i32 2
  store ptr %57, ptr %58, align 8, !tbaa !30
  %59 = load ptr, ptr %11, align 8, !tbaa !14
  %60 = getelementptr inbounds nuw %struct.ACCESS_DESCRIPTION_st, ptr %59, i32 0, i32 1
  %61 = load ptr, ptr %60, align 8, !tbaa !16
  %62 = load ptr, ptr %5, align 8, !tbaa !3
  %63 = load ptr, ptr %6, align 8, !tbaa !28
  %64 = call ptr @v2i_GENERAL_NAME_ex(ptr noundef %61, ptr noundef %62, ptr noundef %63, ptr noundef %10, i32 noundef 0)
  %65 = icmp ne ptr %64, null
  br i1 %65, label %67, label %66

66:                                               ; preds = %51
  br label %100

67:                                               ; preds = %51
  %68 = load ptr, ptr %9, align 8, !tbaa !20
  %69 = getelementptr inbounds nuw %struct.CONF_VALUE, ptr %68, i32 0, i32 1
  %70 = load ptr, ptr %69, align 8, !tbaa !22
  %71 = load ptr, ptr %15, align 8, !tbaa !25
  %72 = load ptr, ptr %9, align 8, !tbaa !20
  %73 = getelementptr inbounds nuw %struct.CONF_VALUE, ptr %72, i32 0, i32 1
  %74 = load ptr, ptr %73, align 8, !tbaa !22
  %75 = ptrtoint ptr %71 to i64
  %76 = ptrtoint ptr %74 to i64
  %77 = sub i64 %75, %76
  %78 = call noalias ptr @CRYPTO_strndup(ptr noundef %70, i64 noundef %77, ptr noundef @.str.5, i32 noundef 134)
  store ptr %78, ptr %14, align 8, !tbaa !25
  %79 = icmp eq ptr %78, null
  br i1 %79, label %80, label %81

80:                                               ; preds = %67
  br label %100

81:                                               ; preds = %67
  %82 = load ptr, ptr %14, align 8, !tbaa !25
  %83 = call ptr @OBJ_txt2obj(ptr noundef %82, i32 noundef 0)
  %84 = load ptr, ptr %11, align 8, !tbaa !14
  %85 = getelementptr inbounds nuw %struct.ACCESS_DESCRIPTION_st, ptr %84, i32 0, i32 0
  store ptr %83, ptr %85, align 8, !tbaa !21
  %86 = load ptr, ptr %11, align 8, !tbaa !14
  %87 = getelementptr inbounds nuw %struct.ACCESS_DESCRIPTION_st, ptr %86, i32 0, i32 0
  %88 = load ptr, ptr %87, align 8, !tbaa !21
  %89 = icmp ne ptr %88, null
  br i1 %89, label %93, label %90

90:                                               ; preds = %81
  call void @ERR_new()
  call void @ERR_set_debug(ptr noundef @.str.5, i32 noundef 138, ptr noundef @__func__.v2i_AUTHORITY_INFO_ACCESS)
  %91 = load ptr, ptr %14, align 8, !tbaa !25
  call void (i32, i32, ptr, ...) @ERR_set_error(i32 noundef 34, i32 noundef 119, ptr noundef @.str.7, ptr noundef %91)
  %92 = load ptr, ptr %14, align 8, !tbaa !25
  call void @CRYPTO_free(ptr noundef %92, ptr noundef @.str.5, i32 noundef 140)
  br label %100

93:                                               ; preds = %81
  %94 = load ptr, ptr %14, align 8, !tbaa !25
  call void @CRYPTO_free(ptr noundef %94, ptr noundef @.str.5, i32 noundef 143)
  br label %95

95:                                               ; preds = %93
  %96 = load i32, ptr %12, align 4, !tbaa !12
  %97 = add nsw i32 %96, 1
  store i32 %97, ptr %12, align 4, !tbaa !12
  br label %26, !llvm.loop !31

98:                                               ; preds = %26
  %99 = load ptr, ptr %8, align 8, !tbaa !8
  store ptr %99, ptr %4, align 8
  store i32 1, ptr %16, align 4
  br label %104

100:                                              ; preds = %90, %80, %66, %50, %37
  %101 = load ptr, ptr %8, align 8, !tbaa !8
  %102 = call ptr @ossl_check_ACCESS_DESCRIPTION_sk_type(ptr noundef %101)
  %103 = call ptr @ossl_check_ACCESS_DESCRIPTION_freefunc_type(ptr noundef @ACCESS_DESCRIPTION_free)
  call void @OPENSSL_sk_pop_free(ptr noundef %102, ptr noundef %103)
  store ptr null, ptr %4, align 8
  store i32 1, ptr %16, align 4
  br label %104

104:                                              ; preds = %100, %98, %24
  call void @llvm.lifetime.end.p0(i64 8, ptr %15) #5
  call void @llvm.lifetime.end.p0(i64 8, ptr %14) #5
  call void @llvm.lifetime.end.p0(i64 4, ptr %13) #5
  call void @llvm.lifetime.end.p0(i64 4, ptr %12) #5
  call void @llvm.lifetime.end.p0(i64 8, ptr %11) #5
  call void @llvm.lifetime.end.p0(i64 24, ptr %10) #5
  call void @llvm.lifetime.end.p0(i64 8, ptr %9) #5
  call void @llvm.lifetime.end.p0(i64 8, ptr %8) #5
  %105 = load ptr, ptr %4, align 8
  ret ptr %105
}