; Function Attrs: nounwind uwtable
define internal ptr @v2i_AUTHORITY_INFO_ACCESS(ptr noundef %0, ptr noundef %1, ptr noundef %2) #1 {
  %4 = alloca %struct.CONF_VALUE, align 8
  call void @llvm.lifetime.start.p0(i64 24, ptr nonnull %4) #5
  %5 = tail call i32 @OPENSSL_sk_num(ptr noundef %2) #5
  %6 = tail call ptr @OPENSSL_sk_new_reserve(ptr noundef null, i32 noundef %5) #5
  %7 = icmp eq ptr %6, null
  br i1 %7, label %11, label %.preheader

.preheader:                                       ; preds = %3
  %8 = icmp sgt i32 %5, 0
  br i1 %8, label %.lr.ph, label %.loopexit

.lr.ph:                                           ; preds = %.preheader
  %9 = getelementptr inbounds nuw i8, ptr %4, i64 8
  %10 = getelementptr inbounds nuw i8, ptr %4, i64 16
  br label %12

11:                                               ; preds = %3
  tail call void @ERR_new() #5
  tail call void @ERR_set_debug(ptr noundef nonnull @.str.5, i32 noundef 115, ptr noundef nonnull @__func__.v2i_AUTHORITY_INFO_ACCESS) #5
  tail call void (i32, i32, ptr, ...) @ERR_set_error(i32 noundef 34, i32 noundef 524303, ptr noundef null) #5
  br label %.loopexit

12:                                               ; preds = %.lr.ph, %41
  %.02734 = phi i32 [ 0, %.lr.ph ], [ %42, %41 ]
  %13 = call ptr @OPENSSL_sk_value(ptr noundef %2, i32 noundef %.02734) #5
  %14 = call ptr @ASN1_item_new(ptr noundef nonnull @ACCESS_DESCRIPTION_it.local_it) #5
  %15 = icmp eq ptr %14, null
  br i1 %15, label %16, label %17

16:                                               ; preds = %12
  call void @ERR_new() #5
  call void @ERR_set_debug(ptr noundef nonnull @.str.5, i32 noundef 121, ptr noundef nonnull @__func__.v2i_AUTHORITY_INFO_ACCESS) #5
  call void (i32, i32, ptr, ...) @ERR_set_error(i32 noundef 34, i32 noundef 524301, ptr noundef null) #5
  br label %.loopexit33

17:                                               ; preds = %12
  %18 = call i32 @OPENSSL_sk_push(ptr noundef nonnull %6, ptr noundef nonnull %14) #5
  %19 = getelementptr inbounds nuw i8, ptr %13, i64 8
  %20 = load ptr, ptr %19, align 8, !tbaa !11
  %21 = call ptr @strchr(ptr noundef nonnull dereferenceable(1) %20, i32 noundef 59) #6
  %22 = icmp eq ptr %21, null
  br i1 %22, label %23, label %24

23:                                               ; preds = %17
  call void @ERR_new() #5
  call void @ERR_set_debug(ptr noundef nonnull @.str.5, i32 noundef 127, ptr noundef nonnull @__func__.v2i_AUTHORITY_INFO_ACCESS) #5
  call void (i32, i32, ptr, ...) @ERR_set_error(i32 noundef 34, i32 noundef 143, ptr noundef null) #5
  br label %.loopexit33

24:                                               ; preds = %17
  %25 = getelementptr inbounds nuw i8, ptr %21, i64 1
  store ptr %25, ptr %9, align 8, !tbaa !11
  %26 = getelementptr inbounds nuw i8, ptr %13, i64 16
  %27 = load ptr, ptr %26, align 8, !tbaa !16
  store ptr %27, ptr %10, align 8, !tbaa !16
  %28 = getelementptr inbounds nuw i8, ptr %14, i64 8
  %29 = load ptr, ptr %28, align 8, !tbaa !3
  %30 = call ptr @v2i_GENERAL_NAME_ex(ptr noundef %29, ptr noundef %0, ptr noundef %1, ptr noundef nonnull %4, i32 noundef 0) #5
  %.not = icmp eq ptr %30, null
  br i1 %.not, label %.loopexit33, label %31

31:                                               ; preds = %24
  %32 = load ptr, ptr %19, align 8, !tbaa !11
  %33 = ptrtoint ptr %21 to i64
  %34 = ptrtoint ptr %32 to i64
  %35 = sub i64 %33, %34
  %36 = call noalias ptr @CRYPTO_strndup(ptr noundef %32, i64 noundef %35, ptr noundef nonnull @.str.5, i32 noundef 134) #5
  %37 = icmp eq ptr %36, null
  br i1 %37, label %.loopexit33, label %38

38:                                               ; preds = %31
  %39 = call ptr @OBJ_txt2obj(ptr noundef nonnull %36, i32 noundef 0) #5
  store ptr %39, ptr %14, align 8, !tbaa !10
  %.not32 = icmp eq ptr %39, null
  br i1 %.not32, label %40, label %41

40:                                               ; preds = %38
  call void @ERR_new() #5
  call void @ERR_set_debug(ptr noundef nonnull @.str.5, i32 noundef 138, ptr noundef nonnull @__func__.v2i_AUTHORITY_INFO_ACCESS) #5
  call void (i32, i32, ptr, ...) @ERR_set_error(i32 noundef 34, i32 noundef 119, ptr noundef nonnull @.str.7, ptr noundef nonnull %36) #5
  call void @CRYPTO_free(ptr noundef nonnull %36, ptr noundef nonnull @.str.5, i32 noundef 140) #5
  br label %.loopexit33

41:                                               ; preds = %38
  call void @CRYPTO_free(ptr noundef nonnull %36, ptr noundef nonnull @.str.5, i32 noundef 143) #5
  %42 = add nuw nsw i32 %.02734, 1
  %exitcond.not = icmp eq i32 %42, %5
  br i1 %exitcond.not, label %.loopexit, label %12, !llvm.loop !17

.loopexit33:                                      ; preds = %31, %24, %40, %23, %16
  call void @OPENSSL_sk_pop_free(ptr noundef nonnull %6, ptr noundef nonnull @ACCESS_DESCRIPTION_free) #5
  br label %.loopexit

.loopexit:                                        ; preds = %41, %.preheader, %.loopexit33, %11
  %.0 = phi ptr [ null, %11 ], [ null, %.loopexit33 ], [ %6, %.preheader ], [ %6, %41 ]
  call void @llvm.lifetime.end.p0(i64 24, ptr nonnull %4) #5
  ret ptr %.0
}